; ModuleID = '56/991.c'
source_filename = "56/991.c"
target datalayout = "e-m:e-p270:32:32-p271:32:32-p272:64:64-i64:64-f80:128-n8:16:32:64-S128"
target triple = "x86_64-pc-linux-gnu"

@.str = private unnamed_addr constant [3 x i8] c"%d\00", align 1

; Function Attrs: noinline nounwind uwtable
define dso_local i32 @main() #0 {
  %1 = alloca i32, align 4
  %2 = alloca i32, align 4
  %3 = alloca i32, align 4
  %4 = alloca i32, align 4
  %5 = alloca i32, align 4
  %6 = alloca i32, align 4
  %7 = alloca i32, align 4
  %8 = alloca i32, align 4
  store i32 0, i32* %1, align 4
  %9 = call i32 (i8*, ...) @__isoc99_scanf(i8* getelementptr inbounds ([3 x i8], [3 x i8]* @.str, i64 0, i64 0), i32* %2)
  %10 = load i32, i32* %2, align 4
  %11 = sdiv i32 %10, 10000
  store i32 %11, i32* %3, align 4
  %12 = load i32, i32* %2, align 4
  %13 = sdiv i32 %12, 1000
  %14 = load i32, i32* %3, align 4
  %15 = mul nsw i32 %14, 10
  %16 = sub nsw i32 %13, %15
  store i32 %16, i32* %4, align 4
  %17 = load i32, i32* %2, align 4
  %18 = sdiv i32 %17, 100
  %19 = load i32, i32* %4, align 4
  %20 = mul nsw i32 %19, 10
  %21 = sub nsw i32 %18, %20
  %22 = load i32, i32* %3, align 4
  %23 = mul nsw i32 %22, 100
  %24 = sub nsw i32 %21, %23
  store i32 %24, i32* %5, align 4
  %25 = load i32, i32* %2, align 4
  %26 = sdiv i32 %25, 10
  %27 = load i32, i32* %5, align 4
  %28 = mul nsw i32 %27, 10
  %29 = sub nsw i32 %26, %28
  %30 = load i32, i32* %4, align 4
  %31 = mul nsw i32 %30, 100
  %32 = sub nsw i32 %29, %31
  %33 = load i32, i32* %3, align 4
  %34 = mul nsw i32 %33, 1000
  %35 = sub nsw i32 %32, %34
  store i32 %35, i32* %6, align 4
  %36 = load i32, i32* %2, align 4
  %37 = srem i32 %36, 10
  store i32 %37, i32* %7, align 4
  %38 = load i32, i32* %3, align 4
  %39 = load i32, i32* %4, align 4
  %40 = mul nsw i32 %39, 10
  %41 = add nsw i32 %38, %40
  %42 = load i32, i32* %5, align 4
  %43 = mul nsw i32 %42, 100
  %44 = add nsw i32 %41, %43
  %45 = load i32, i32* %6, align 4
  %46 = mul nsw i32 %45, 1000
  %47 = add nsw i32 %44, %46
  %48 = load i32, i32* %7, align 4
  %49 = mul nsw i32 %48, 10000
  %50 = add nsw i32 %47, %49
  store i32 %50, i32* %8, align 4
  %51 = load i32, i32* %3, align 4
  %52 = icmp eq i32 %51, 0
  br i1 %52, label %53, label %56

53:                                               ; preds = %0
  %54 = load i32, i32* %8, align 4
  %55 = sdiv i32 %54, 10
  store i32 %55, i32* %8, align 4
  br label %56

56:                                               ; preds = %53, %0
  %57 = load i32, i32* %4, align 4
  %58 = icmp eq i32 %57, 0
  br i1 %58, label %59, label %62

59:                                               ; preds = %56
  %60 = load i32, i32* %8, align 4
  %61 = sdiv i32 %60, 10
  store i32 %61, i32* %8, align 4
  br label %62

62:                                               ; preds = %59, %56
  %63 = load i32, i32* %5, align 4
  %64 = icmp eq i32 %63, 0
  br i1 %64, label %65, label %68

65:                                               ; preds = %62
  %66 = load i32, i32* %8, align 4
  %67 = sdiv i32 %66, 10
  store i32 %67, i32* %8, align 4
  br label %68

68:                                               ; preds = %65, %62
  %69 = load i32, i32* %6, align 4
  %70 = icmp eq i32 %69, 0
  br i1 %70, label %71, label %74

71:                                               ; preds = %68
  %72 = load i32, i32* %8, align 4
  %73 = sdiv i32 %72, 10
  store i32 %73, i32* %8, align 4
  br label %74

74:                                               ; preds = %71, %68
  %75 = load i32, i32* %7, align 4
  %76 = icmp eq i32 %75, 0
  br i1 %76, label %77, label %80

77:                                               ; preds = %74
  %78 = load i32, i32* %8, align 4
  %79 = sdiv i32 %78, 10
  store i32 %79, i32* %8, align 4
  br label %80

80:                                               ; preds = %77, %74
  %81 = load i32, i32* %8, align 4
  %82 = call i32 (i8*, ...) @printf(i8* getelementptr inbounds ([3 x i8], [3 x i8]* @.str, i64 0, i64 0), i32 %81)
  ret i32 0
}

declare dso_local i32 @__isoc99_scanf(i8*, ...) #1

declare dso_local i32 @printf(i8*, ...) #1


!llvm.module.flags = !{!0}
!llvm.ident = !{!1}

!0 = !{i32 1, !"wchar_size", i32 4}
!1 = !{!"clang version 10.0.0-4ubuntu1 "}
